target datalayout = "e-m:e-p270:32:32-p271:32:32-p272:64:64-i64:64-i128:128-f80:128-n8:16:32:64-S128"
target triple = "x86_64-pc-linux-gnu"

%struct.JNINativeInterface_ = type { ptr, ptr, ptr, ptr, ptr, ptr, ptr, ptr, ptr, ptr, ptr, ptr, ptr, ptr, ptr, ptr, ptr, ptr, ptr, ptr, ptr, ptr, ptr, ptr, ptr, ptr, ptr, ptr, ptr, ptr, ptr, ptr, ptr, ptr, ptr, ptr, ptr, ptr, ptr, ptr, ptr, ptr, ptr, ptr, ptr, ptr, ptr, ptr, ptr, ptr, ptr, ptr, ptr, ptr, ptr, ptr, ptr, ptr, ptr, ptr, ptr, ptr, ptr, ptr, ptr, ptr, ptr, ptr, ptr, ptr, ptr, ptr, ptr, ptr, ptr, ptr, ptr, ptr, ptr, ptr, ptr, ptr, ptr, ptr, ptr, ptr, ptr, ptr, ptr, ptr, ptr, ptr, ptr, ptr, ptr, ptr, ptr, ptr, ptr, ptr, ptr, ptr, ptr, ptr, ptr, ptr, ptr, ptr, ptr, ptr, ptr, ptr, ptr, ptr, ptr, ptr, ptr, ptr, ptr, ptr, ptr, ptr, ptr, ptr, ptr, ptr, ptr, ptr, ptr, ptr, ptr, ptr, ptr, ptr, ptr, ptr, ptr, ptr, ptr, ptr, ptr, ptr, ptr, ptr, ptr, ptr, ptr, ptr, ptr, ptr, ptr, ptr, ptr, ptr, ptr, ptr, ptr, ptr, ptr, ptr, ptr, ptr, ptr, ptr, ptr, ptr, ptr, ptr, ptr, ptr, ptr, ptr, ptr, ptr, ptr, ptr, ptr, ptr, ptr, ptr, ptr, ptr, ptr, ptr, ptr, ptr, ptr, ptr, ptr, ptr, ptr, ptr, ptr, ptr, ptr, ptr, ptr, ptr, ptr, ptr, ptr, ptr, ptr, ptr, ptr, ptr, ptr, ptr, ptr, ptr, ptr, ptr, ptr, ptr, ptr, ptr, ptr, ptr, ptr, ptr, ptr, ptr, ptr, ptr, ptr, ptr, ptr, ptr, ptr, ptr, ptr, ptr, ptr, ptr, ptr }
%struct._SurfaceDataOps = type { ptr, ptr, ptr, ptr, ptr, ptr, ptr }

@pInvalidPipeClass = internal global ptr null, align 8
@pNullSurfaceDataClass = internal global ptr null, align 8
@pDataID = internal global ptr null, align 8
@validID = hidden global ptr null, align 8
@.str.9 = private unnamed_addr constant [12 x i8] c"surfaceData\00", align 1
@.str.10 = private unnamed_addr constant [13 x i8] c"invalid data\00", align 1
@.str.11 = private unnamed_addr constant [19 x i8] c"native ops missing\00", align 1

; Function Attrs: nounwind uwtable
define void @SurfaceData_ThrowInvalidPipeException(ptr noundef %0, ptr noundef %1) #0 {
  %3 = alloca ptr, align 8
  %4 = alloca ptr, align 8
  store ptr %0, ptr %3, align 8
  store ptr %1, ptr %4, align 8
  %5 = load ptr, ptr %3, align 8
  %6 = load ptr, ptr %5, align 8
  %7 = getelementptr inbounds %struct.JNINativeInterface_, ptr %6, i32 0, i32 14
  %8 = load ptr, ptr %7, align 8
  %9 = load ptr, ptr %3, align 8
  %10 = load ptr, ptr @pInvalidPipeClass, align 8
  %11 = load ptr, ptr %4, align 8
  %12 = call i32 %8(ptr noundef %9, ptr noundef %10, ptr noundef %11)
  ret void
}

; Function Attrs: nounwind uwtable
define internal ptr @GetSDOps(ptr noundef %0, ptr noundef %1, i8 noundef zeroext %2) #0 {
  %4 = alloca ptr, align 8
  %5 = alloca ptr, align 8
  %6 = alloca ptr, align 8
  %7 = alloca i8, align 1
  %8 = alloca ptr, align 8
  store ptr %0, ptr %5, align 8
  store ptr %1, ptr %6, align 8
  store i8 %2, ptr %7, align 1
  %9 = load ptr, ptr %6, align 8
  %10 = icmp eq ptr %9, null
  br i1 %10, label %11, label %13

11:                                               ; preds = %3
  %12 = load ptr, ptr %5, align 8
  call void @JNU_ThrowNullPointerException(ptr noundef %12, ptr noundef @.str.9)
  store ptr null, ptr %4, align 8
  br label %79

13:                                               ; preds = %3
  %14 = load ptr, ptr %5, align 8
  %15 = load ptr, ptr %14, align 8
  %16 = getelementptr inbounds %struct.JNINativeInterface_, ptr %15, i32 0, i32 101
  %17 = load ptr, ptr %16, align 8
  %18 = load ptr, ptr %5, align 8
  %19 = load ptr, ptr %6, align 8
  %20 = load ptr, ptr @pDataID, align 8
  %21 = call i64 %17(ptr noundef %18, ptr noundef %19, ptr noundef %20)
  %22 = inttoptr i64 %21 to ptr
  store ptr %22, ptr %8, align 8
  %23 = load ptr, ptr %8, align 8
  %24 = icmp eq ptr %23, null
  br i1 %24, label %25, label %59

25:                                               ; preds = %13
  %26 = load ptr, ptr %5, align 8
  %27 = load ptr, ptr %26, align 8
  %28 = getelementptr inbounds %struct.JNINativeInterface_, ptr %27, i32 0, i32 15
  %29 = load ptr, ptr %28, align 8
  %30 = load ptr, ptr %5, align 8
  %31 = call ptr %29(ptr noundef %30)
  %32 = icmp ne ptr %31, null
  br i1 %32, label %58, label %33

33:                                               ; preds = %25
  %34 = load ptr, ptr %5, align 8
  %35 = load ptr, ptr %34, align 8
  %36 = getelementptr inbounds %struct.JNINativeInterface_, ptr %35, i32 0, i32 32
  %37 = load ptr, ptr %36, align 8
  %38 = load ptr, ptr %5, align 8
  %39 = load ptr, ptr %6, align 8
  %40 = load ptr, ptr @pNullSurfaceDataClass, align 8
  %41 = call zeroext i8 %37(ptr noundef %38, ptr noundef %39, ptr noundef %40)
  %42 = icmp ne i8 %41, 0
  br i1 %42, label %58, label %43

43:                                               ; preds = %33
  %44 = load ptr, ptr %5, align 8
  %45 = load ptr, ptr %44, align 8
  %46 = getelementptr inbounds %struct.JNINativeInterface_, ptr %45, i32 0, i32 96
  %47 = load ptr, ptr %46, align 8
  %48 = load ptr, ptr %5, align 8
  %49 = load ptr, ptr %6, align 8
  %50 = load ptr, ptr @validID, align 8
  %51 = call zeroext i8 %47(ptr noundef %48, ptr noundef %49, ptr noundef %50)
  %52 = icmp ne i8 %51, 0
  br i1 %52, label %55, label %53

53:                                               ; preds = %43
  %54 = load ptr, ptr %5, align 8
  call void @SurfaceData_ThrowInvalidPipeException(ptr noundef %54, ptr noundef @.str.10)
  br label %57

55:                                               ; preds = %43
  %56 = load ptr, ptr %5, align 8
  call void @JNU_ThrowNullPointerException(ptr noundef %56, ptr noundef @.str.11)
  br label %57

57:                                               ; preds = %55, %53
  br label %58

58:                                               ; preds = %57, %33, %25
  br label %77

59:                                               ; preds = %13
  %60 = load i8, ptr %7, align 1
  %61 = icmp ne i8 %60, 0
  br i1 %61, label %62, label %76

62:                                               ; preds = %59
  br label %63

63:                                               ; preds = %62
  %64 = load ptr, ptr %8, align 8
  %65 = getelementptr inbounds %struct._SurfaceDataOps, ptr %64, i32 0, i32 4
  %66 = load ptr, ptr %65, align 8
  %67 = icmp ne ptr %66, null
  br i1 %67, label %68, label %74

68:                                               ; preds = %63
  %69 = load ptr, ptr %8, align 8
  %70 = getelementptr inbounds %struct._SurfaceDataOps, ptr %69, i32 0, i32 4
  %71 = load ptr, ptr %70, align 8
  %72 = load ptr, ptr %5, align 8
  %73 = load ptr, ptr %8, align 8
  call void %71(ptr noundef %72, ptr noundef %73)
  br label %74

74:                                               ; preds = %68, %63
  br label %75

75:                                               ; preds = %74
  br label %76

76:                                               ; preds = %75, %59
  br label %77

77:                                               ; preds = %76, %58
  %78 = load ptr, ptr %8, align 8
  store ptr %78, ptr %4, align 8
  br label %79

79:                                               ; preds = %77, %11
  %80 = load ptr, ptr %4, align 8
  ret ptr %80
}

; Function Attrs: nounwind uwtable
define hidden ptr @SurfaceData_GetOpsNoSetup(ptr noundef %0, ptr noundef %1) #0 {
  %3 = alloca ptr, align 8
  %4 = alloca ptr, align 8
  store ptr %0, ptr %3, align 8
  store ptr %1, ptr %4, align 8
  %5 = load ptr, ptr %3, align 8
  %6 = load ptr, ptr %4, align 8
  %7 = call ptr @GetSDOps(ptr noundef %5, ptr noundef %6, i8 noundef zeroext 0)
  ret ptr %7
}