; Function Attrs: nounwind uwtable
define hidden ptr @SurfaceData_GetOpsNoSetup(ptr noundef %0, ptr noundef %1) local_unnamed_addr #0 {
  %3 = icmp eq ptr %1, null
  br i1 %3, label %4, label %5

4:                                                ; preds = %2
  tail call void @JNU_ThrowNullPointerException(ptr noundef %0, ptr noundef nonnull @.str.9) #7
  br label %GetSDOps.exit

5:                                                ; preds = %2
  %6 = load ptr, ptr %0, align 8
  %7 = getelementptr inbounds i8, ptr %6, i64 808
  %8 = load ptr, ptr %7, align 8
  %9 = load ptr, ptr @pDataID, align 8
  %10 = tail call i64 %8(ptr noundef nonnull %0, ptr noundef nonnull %1, ptr noundef %9) #7
  %11 = inttoptr i64 %10 to ptr
  %12 = icmp eq i64 %10, 0
  br i1 %12, label %13, label %GetSDOps.exit

13:                                               ; preds = %5
  %14 = load ptr, ptr %0, align 8
  %15 = getelementptr inbounds i8, ptr %14, i64 120
  %16 = load ptr, ptr %15, align 8
  %17 = tail call ptr %16(ptr noundef nonnull %0) #7
  %.not26.i = icmp eq ptr %17, null
  br i1 %.not26.i, label %18, label %GetSDOps.exit

18:                                               ; preds = %13
  %19 = load ptr, ptr %0, align 8
  %20 = getelementptr inbounds i8, ptr %19, i64 256
  %21 = load ptr, ptr %20, align 8
  %22 = load ptr, ptr @pNullSurfaceDataClass, align 8
  %23 = tail call zeroext i8 %21(ptr noundef nonnull %0, ptr noundef nonnull %1, ptr noundef %22) #7
  %.not27.i = icmp eq i8 %23, 0
  br i1 %.not27.i, label %24, label %GetSDOps.exit

24:                                               ; preds = %18
  %25 = load ptr, ptr %0, align 8
  %26 = getelementptr inbounds i8, ptr %25, i64 768
  %27 = load ptr, ptr %26, align 8
  %28 = load ptr, ptr @validID, align 8
  %29 = tail call zeroext i8 %27(ptr noundef nonnull %0, ptr noundef nonnull %1, ptr noundef %28) #7
  %.not28.i = icmp eq i8 %29, 0
  br i1 %.not28.i, label %30, label %36

30:                                               ; preds = %24
  %31 = load ptr, ptr %0, align 8
  %32 = getelementptr inbounds i8, ptr %31, i64 112
  %33 = load ptr, ptr %32, align 8
  %34 = load ptr, ptr @pInvalidPipeClass, align 8
  %35 = tail call i32 %33(ptr noundef nonnull %0, ptr noundef %34, ptr noundef nonnull @.str.10) #7
  br label %GetSDOps.exit

36:                                               ; preds = %24
  tail call void @JNU_ThrowNullPointerException(ptr noundef nonnull %0, ptr noundef nonnull @.str.11) #7
  br label %GetSDOps.exit

GetSDOps.exit:                                    ; preds = %5, %4, %13, %18, %30, %36
  %.0.i = phi ptr [ null, %4 ], [ %11, %13 ], [ %11, %18 ], [ %11, %36 ], [ %11, %30 ], [ %11, %5 ]
  ret ptr %.0.i
}